; Function Attrs: null_pointer_is_valid sspstrong uwtable
define void @tvb_get_ntohguid(ptr noundef %0, i32 noundef %1, ptr noundef initializes((0, 8)) %2) local_unnamed_addr #0 {
  %4 = tail call fastcc ptr @ensure_contiguous(ptr noundef %0, i32 noundef %1, i32 noundef 16)
  %5 = load i8, ptr %4, align 1
  %6 = zext i8 %5 to i32
  %7 = shl nuw i32 %6, 24
  %8 = getelementptr i8, ptr %4, i64 1
  %9 = load i8, ptr %8, align 1
  %10 = zext i8 %9 to i32
  %11 = shl nuw nsw i32 %10, 16
  %12 = or disjoint i32 %11, %7
  %13 = getelementptr i8, ptr %4, i64 2
  %14 = load i8, ptr %13, align 1
  %15 = zext i8 %14 to i32
  %16 = shl nuw nsw i32 %15, 8
  %17 = or disjoint i32 %12, %16
  %18 = getelementptr i8, ptr %4, i64 3
  %19 = load i8, ptr %18, align 1
  %20 = zext i8 %19 to i32
  %21 = or disjoint i32 %17, %20
  store i32 %21, ptr %2, align 4
  %22 = getelementptr i8, ptr %4, i64 4
  %.val10 = load i8, ptr %22, align 1
  %23 = getelementptr i8, ptr %4, i64 5
  %.val11 = load i8, ptr %23, align 1
  %24 = zext i8 %.val10 to i16
  %25 = shl nuw i16 %24, 8
  %26 = zext i8 %.val11 to i16
  %27 = or disjoint i16 %25, %26
  %28 = getelementptr inbounds nuw i8, ptr %2, i64 4
  store i16 %27, ptr %28, align 4
  %29 = getelementptr i8, ptr %4, i64 6
  %.val = load i8, ptr %29, align 1
  %30 = getelementptr i8, ptr %4, i64 7
  %.val9 = load i8, ptr %30, align 1
  %31 = zext i8 %.val to i16
  %32 = shl nuw i16 %31, 8
  %33 = zext i8 %.val9 to i16
  %34 = or disjoint i16 %32, %33
  %35 = getelementptr inbounds nuw i8, ptr %2, i64 6
  store i16 %34, ptr %35, align 2
  %36 = getelementptr inbounds nuw i8, ptr %2, i64 8
  %37 = getelementptr i8, ptr %4, i64 8
  %38 = load i64, ptr %37, align 1
  store i64 %38, ptr %36, align 1
  ret void
}